target datalayout = "e-m:e-p270:32:32-p271:32:32-p272:64:64-i64:64-i128:128-f80:128-n8:16:32:64-S128"
target triple = "x86_64-pc-linux-gnu"

%struct.vfd = type { i32, i16, ptr, i32, i32, i32, i64, ptr, i32, i32 }

@max_safe_fds = dso_local global i32 48, align 4
@VfdCache = internal global ptr null, align 8
@numExternalFDs = internal global i32 0, align 4
@nfile = internal global i32 0, align 4
@numAllocatedDescs = internal global i32 0, align 4

; Function Attrs: nounwind uwtable
define internal zeroext i1 @ReleaseLruFile() #0 {
  %1 = alloca i1, align 1
  %2 = load i32, ptr @nfile, align 4
  %3 = icmp sgt i32 %2, 0
  br i1 %3, label %4, label %9

4:                                                ; preds = %0
  %5 = load ptr, ptr @VfdCache, align 8
  %6 = getelementptr inbounds %struct.vfd, ptr %5, i64 0
  %7 = getelementptr inbounds nuw %struct.vfd, ptr %6, i32 0, i32 4
  %8 = load i32, ptr %7, align 4
  call void @LruDelete(i32 noundef %8)
  store i1 true, ptr %1, align 1
  br label %10

9:                                                ; preds = %0
  store i1 false, ptr %1, align 1
  br label %10

10:                                               ; preds = %9, %4
  %11 = load i1, ptr %1, align 1
  ret i1 %11
}

; Function Attrs: nounwind uwtable
define internal void @ReleaseLruFiles() #0 {
  br label %1

1:                                                ; preds = %12, %0
  %2 = load i32, ptr @nfile, align 4
  %3 = load i32, ptr @numAllocatedDescs, align 4
  %4 = add i32 %2, %3
  %5 = load i32, ptr @numExternalFDs, align 4
  %6 = add i32 %4, %5
  %7 = load i32, ptr @max_safe_fds, align 4
  %8 = icmp sge i32 %6, %7
  br i1 %8, label %9, label %13

9:                                                ; preds = %1
  %10 = call zeroext i1 @ReleaseLruFile()
  br i1 %10, label %12, label %11

11:                                               ; preds = %9
  br label %13

12:                                               ; preds = %9
  br label %1, !llvm.loop !10

13:                                               ; preds = %11, %1
  ret void
}

; Function Attrs: nounwind uwtable
define internal void @Insert(i32 noundef %0) #0 {
  %2 = alloca i32, align 4
  %3 = alloca ptr, align 8
  store i32 %0, ptr %2, align 4
  call void @llvm.lifetime.start.p0(i64 8, ptr %3) #14
  %4 = load ptr, ptr @VfdCache, align 8
  %5 = load i32, ptr %2, align 4
  %6 = sext i32 %5 to i64
  %7 = getelementptr inbounds %struct.vfd, ptr %4, i64 %6
  store ptr %7, ptr %3, align 8
  %8 = load ptr, ptr %3, align 8
  %9 = getelementptr inbounds nuw %struct.vfd, ptr %8, i32 0, i32 4
  store i32 0, ptr %9, align 4
  %10 = load ptr, ptr @VfdCache, align 8
  %11 = getelementptr inbounds %struct.vfd, ptr %10, i64 0
  %12 = getelementptr inbounds nuw %struct.vfd, ptr %11, i32 0, i32 5
  %13 = load i32, ptr %12, align 8
  %14 = load ptr, ptr %3, align 8
  %15 = getelementptr inbounds nuw %struct.vfd, ptr %14, i32 0, i32 5
  store i32 %13, ptr %15, align 8
  %16 = load i32, ptr %2, align 4
  %17 = load ptr, ptr @VfdCache, align 8
  %18 = getelementptr inbounds %struct.vfd, ptr %17, i64 0
  %19 = getelementptr inbounds nuw %struct.vfd, ptr %18, i32 0, i32 5
  store i32 %16, ptr %19, align 8
  %20 = load i32, ptr %2, align 4
  %21 = load ptr, ptr @VfdCache, align 8
  %22 = load ptr, ptr %3, align 8
  %23 = getelementptr inbounds nuw %struct.vfd, ptr %22, i32 0, i32 5
  %24 = load i32, ptr %23, align 8
  %25 = sext i32 %24 to i64
  %26 = getelementptr inbounds %struct.vfd, ptr %21, i64 %25
  %27 = getelementptr inbounds nuw %struct.vfd, ptr %26, i32 0, i32 4
  store i32 %20, ptr %27, align 4
  call void @llvm.lifetime.end.p0(i64 8, ptr %3) #14
  ret void
}

; Function Attrs: nounwind uwtable
define internal void @Delete(i32 noundef %0) #0 {
  %2 = alloca i32, align 4
  %3 = alloca ptr, align 8
  store i32 %0, ptr %2, align 4
  call void @llvm.lifetime.start.p0(i64 8, ptr %3) #14
  %4 = load ptr, ptr @VfdCache, align 8
  %5 = load i32, ptr %2, align 4
  %6 = sext i32 %5 to i64
  %7 = getelementptr inbounds %struct.vfd, ptr %4, i64 %6
  store ptr %7, ptr %3, align 8
  %8 = load ptr, ptr %3, align 8
  %9 = getelementptr inbounds nuw %struct.vfd, ptr %8, i32 0, i32 4
  %10 = load i32, ptr %9, align 4
  %11 = load ptr, ptr @VfdCache, align 8
  %12 = load ptr, ptr %3, align 8
  %13 = getelementptr inbounds nuw %struct.vfd, ptr %12, i32 0, i32 5
  %14 = load i32, ptr %13, align 8
  %15 = sext i32 %14 to i64
  %16 = getelementptr inbounds %struct.vfd, ptr %11, i64 %15
  %17 = getelementptr inbounds nuw %struct.vfd, ptr %16, i32 0, i32 4
  store i32 %10, ptr %17, align 4
  %18 = load ptr, ptr %3, align 8
  %19 = getelementptr inbounds nuw %struct.vfd, ptr %18, i32 0, i32 5
  %20 = load i32, ptr %19, align 8
  %21 = load ptr, ptr @VfdCache, align 8
  %22 = load ptr, ptr %3, align 8
  %23 = getelementptr inbounds nuw %struct.vfd, ptr %22, i32 0, i32 4
  %24 = load i32, ptr %23, align 4
  %25 = sext i32 %24 to i64
  %26 = getelementptr inbounds %struct.vfd, ptr %21, i64 %25
  %27 = getelementptr inbounds nuw %struct.vfd, ptr %26, i32 0, i32 5
  store i32 %20, ptr %27, align 8
  call void @llvm.lifetime.end.p0(i64 8, ptr %3) #14
  ret void
}

; Function Attrs: nounwind uwtable
define internal i32 @LruInsert(i32 noundef %0) #0 {
  %2 = alloca i32, align 4
  %3 = alloca i32, align 4
  %4 = alloca ptr, align 8
  %5 = alloca i32, align 4
  store i32 %0, ptr %3, align 4
  call void @llvm.lifetime.start.p0(i64 8, ptr %4) #14
  %6 = load ptr, ptr @VfdCache, align 8
  %7 = load i32, ptr %3, align 4
  %8 = sext i32 %7 to i64
  %9 = getelementptr inbounds %struct.vfd, ptr %6, i64 %8
  store ptr %9, ptr %4, align 8
  %10 = load ptr, ptr @VfdCache, align 8
  %11 = load i32, ptr %3, align 4
  %12 = sext i32 %11 to i64
  %13 = getelementptr inbounds %struct.vfd, ptr %10, i64 %12
  %14 = getelementptr inbounds nuw %struct.vfd, ptr %13, i32 0, i32 0
  %15 = load i32, ptr %14, align 8
  %16 = icmp eq i32 %15, -1
  br i1 %16, label %17, label %39

17:                                               ; preds = %1
  call void @ReleaseLruFiles()
  %18 = load ptr, ptr %4, align 8
  %19 = getelementptr inbounds nuw %struct.vfd, ptr %18, i32 0, i32 7
  %20 = load ptr, ptr %19, align 8
  %21 = load ptr, ptr %4, align 8
  %22 = getelementptr inbounds nuw %struct.vfd, ptr %21, i32 0, i32 8
  %23 = load i32, ptr %22, align 8
  %24 = load ptr, ptr %4, align 8
  %25 = getelementptr inbounds nuw %struct.vfd, ptr %24, i32 0, i32 9
  %26 = load i32, ptr %25, align 4
  %27 = call i32 @BasicOpenFilePerm(ptr noundef %20, i32 noundef %23, i32 noundef %26)
  %28 = load ptr, ptr %4, align 8
  %29 = getelementptr inbounds nuw %struct.vfd, ptr %28, i32 0, i32 0
  store i32 %27, ptr %29, align 8
  %30 = load ptr, ptr %4, align 8
  %31 = getelementptr inbounds nuw %struct.vfd, ptr %30, i32 0, i32 0
  %32 = load i32, ptr %31, align 8
  %33 = icmp slt i32 %32, 0
  br i1 %33, label %34, label %35

34:                                               ; preds = %17
  store i32 -1, ptr %2, align 4
  store i32 1, ptr %5, align 4
  br label %41

35:                                               ; preds = %17
  %36 = load i32, ptr @nfile, align 4
  %37 = add i32 %36, 1
  store i32 %37, ptr @nfile, align 4
  br label %38

38:                                               ; preds = %35
  br label %39

39:                                               ; preds = %38, %1
  %40 = load i32, ptr %3, align 4
  call void @Insert(i32 noundef %40)
  store i32 0, ptr %2, align 4
  store i32 1, ptr %5, align 4
  br label %41

41:                                               ; preds = %39, %34
  call void @llvm.lifetime.end.p0(i64 8, ptr %4) #14
  %42 = load i32, ptr %2, align 4
  ret i32 %42
}

; Function Attrs: nounwind uwtable
define internal i32 @FileAccess(i32 noundef %0) #0 {
  %2 = alloca i32, align 4
  %3 = alloca i32, align 4
  %4 = alloca i32, align 4
  %5 = alloca i32, align 4
  store i32 %0, ptr %3, align 4
  call void @llvm.lifetime.start.p0(i64 4, ptr %4) #14
  %6 = load ptr, ptr @VfdCache, align 8
  %7 = load i32, ptr %3, align 4
  %8 = sext i32 %7 to i64
  %9 = getelementptr inbounds %struct.vfd, ptr %6, i64 %8
  %10 = getelementptr inbounds nuw %struct.vfd, ptr %9, i32 0, i32 0
  %11 = load i32, ptr %10, align 8
  %12 = icmp eq i32 %11, -1
  br i1 %12, label %13, label %21

13:                                               ; preds = %1
  %14 = load i32, ptr %3, align 4
  %15 = call i32 @LruInsert(i32 noundef %14)
  store i32 %15, ptr %4, align 4
  %16 = load i32, ptr %4, align 4
  %17 = icmp ne i32 %16, 0
  br i1 %17, label %18, label %20

18:                                               ; preds = %13
  %19 = load i32, ptr %4, align 4
  store i32 %19, ptr %2, align 4
  store i32 1, ptr %5, align 4
  br label %33

20:                                               ; preds = %13
  br label %32

21:                                               ; preds = %1
  %22 = load ptr, ptr @VfdCache, align 8
  %23 = getelementptr inbounds %struct.vfd, ptr %22, i64 0
  %24 = getelementptr inbounds nuw %struct.vfd, ptr %23, i32 0, i32 5
  %25 = load i32, ptr %24, align 8
  %26 = load i32, ptr %3, align 4
  %27 = icmp ne i32 %25, %26
  br i1 %27, label %28, label %31

28:                                               ; preds = %21
  %29 = load i32, ptr %3, align 4
  call void @Delete(i32 noundef %29)
  %30 = load i32, ptr %3, align 4
  call void @Insert(i32 noundef %30)
  br label %31

31:                                               ; preds = %28, %21
  br label %32

32:                                               ; preds = %31, %20
  store i32 0, ptr %2, align 4
  store i32 1, ptr %5, align 4
  br label %33

33:                                               ; preds = %32, %18
  call void @llvm.lifetime.end.p0(i64 4, ptr %4) #14
  %34 = load i32, ptr %2, align 4
  ret i32 %34
}