; Function Attrs: nounwind uwtable
define internal fastcc range(i32 -1, 1) i32 @FileAccess(i32 noundef %0) unnamed_addr #0 {
  %2 = load ptr, ptr @VfdCache, align 8
  %3 = sext i32 %0 to i64
  %4 = getelementptr inbounds %struct.vfd, ptr %2, i64 %3
  %5 = load i32, ptr %4, align 8
  %6 = icmp eq i32 %5, -1
  br i1 %6, label %7, label %40

7:                                                ; preds = %1
  %8 = load i32, ptr @nfile, align 4
  %9 = load i32, ptr @numAllocatedDescs, align 4
  %10 = add i32 %9, %8
  %11 = load i32, ptr @numExternalFDs, align 4
  %12 = add i32 %10, %11
  %13 = load i32, ptr @max_safe_fds, align 4
  %.not1.i.i = icmp sge i32 %12, %13
  %14 = icmp sgt i32 %8, 0
  %or.cond2.i.i = and i1 %14, %.not1.i.i
  br i1 %or.cond2.i.i, label %ReleaseLruFile.exit.i.i, label %ReleaseLruFiles.exit.i

ReleaseLruFile.exit.i.i:                          ; preds = %7, %ReleaseLruFile.exit.i.i
  %15 = load ptr, ptr @VfdCache, align 8
  %16 = getelementptr inbounds nuw i8, ptr %15, i64 20
  %17 = load i32, ptr %16, align 4
  tail call fastcc void @LruDelete(i32 noundef %17)
  %18 = load i32, ptr @nfile, align 4
  %19 = load i32, ptr @numAllocatedDescs, align 4
  %20 = add i32 %19, %18
  %21 = load i32, ptr @numExternalFDs, align 4
  %22 = add i32 %20, %21
  %23 = load i32, ptr @max_safe_fds, align 4
  %.not.i.i = icmp sge i32 %22, %23
  %24 = icmp sgt i32 %18, 0
  %or.cond.i.i = and i1 %24, %.not.i.i
  br i1 %or.cond.i.i, label %ReleaseLruFile.exit.i.i, label %ReleaseLruFiles.exit.i, !llvm.loop !9

ReleaseLruFiles.exit.i:                           ; preds = %ReleaseLruFile.exit.i.i, %7
  %25 = getelementptr inbounds nuw i8, ptr %4, i64 40
  %26 = load ptr, ptr %25, align 8
  %27 = getelementptr inbounds nuw i8, ptr %4, i64 48
  %28 = load i32, ptr %27, align 8
  %29 = getelementptr inbounds nuw i8, ptr %4, i64 52
  %30 = load i32, ptr %29, align 4
  %31 = tail call i32 @BasicOpenFilePerm(ptr noundef %26, i32 noundef %28, i32 noundef %30)
  store i32 %31, ptr %4, align 8
  %32 = icmp slt i32 %31, 0
  br i1 %32, label %LruInsert.exit, label %LruInsert.exit.thread

LruInsert.exit.thread:                            ; preds = %ReleaseLruFiles.exit.i
  %33 = load i32, ptr @nfile, align 4
  %34 = add i32 %33, 1
  store i32 %34, ptr @nfile, align 4
  %.pre.i = load ptr, ptr @VfdCache, align 8
  %35 = getelementptr inbounds %struct.vfd, ptr %.pre.i, i64 %3
  %36 = getelementptr inbounds nuw i8, ptr %35, i64 20
  store i32 0, ptr %36, align 4
  %37 = getelementptr inbounds nuw i8, ptr %.pre.i, i64 24
  %38 = load i32, ptr %37, align 8
  %39 = getelementptr inbounds nuw i8, ptr %35, i64 24
  store i32 %38, ptr %39, align 8
  store i32 %0, ptr %37, align 8
  br label %LruInsert.exit.sink.split

40:                                               ; preds = %1
  %41 = getelementptr inbounds nuw i8, ptr %2, i64 24
  %42 = load i32, ptr %41, align 8
  %.not = icmp eq i32 %42, %0
  br i1 %.not, label %LruInsert.exit, label %43

43:                                               ; preds = %40
  %44 = getelementptr inbounds nuw i8, ptr %4, i64 20
  %45 = load i32, ptr %44, align 4
  %46 = getelementptr inbounds nuw i8, ptr %4, i64 24
  %47 = load i32, ptr %46, align 8
  %48 = sext i32 %47 to i64
  %49 = getelementptr inbounds %struct.vfd, ptr %2, i64 %48, i32 4
  store i32 %45, ptr %49, align 4
  %50 = sext i32 %45 to i64
  %51 = getelementptr inbounds %struct.vfd, ptr %2, i64 %50, i32 5
  store i32 %47, ptr %51, align 8
  store i32 0, ptr %44, align 4
  %52 = load i32, ptr %41, align 8
  store i32 %52, ptr %46, align 8
  store i32 %0, ptr %41, align 8
  br label %LruInsert.exit.sink.split

LruInsert.exit.sink.split:                        ; preds = %LruInsert.exit.thread, %43
  %.sink.in = phi ptr [ %46, %43 ], [ %39, %LruInsert.exit.thread ]
  %.sink13 = phi ptr [ %2, %43 ], [ %.pre.i, %LruInsert.exit.thread ]
  %.sink = load i32, ptr %.sink.in, align 8
  %53 = sext i32 %.sink to i64
  %54 = getelementptr inbounds %struct.vfd, ptr %.sink13, i64 %53, i32 4
  store i32 %0, ptr %54, align 4
  br label %LruInsert.exit

LruInsert.exit:                                   ; preds = %LruInsert.exit.sink.split, %40, %ReleaseLruFiles.exit.i
  %.0 = phi i32 [ -1, %ReleaseLruFiles.exit.i ], [ 0, %40 ], [ 0, %LruInsert.exit.sink.split ]
  ret i32 %.0
}